; Function Attrs: mustprogress nounwind uwtable
define dso_local void @_ZN4llvm22AArch64MCAsmInfoDarwinC2Eb(ptr noundef nonnull align 8 dereferenceable(484) %0, i1 noundef zeroext %1) unnamed_addr #0 align 2 {
  tail call void @_ZN4llvm15MCAsmInfoDarwinC2Ev(ptr noundef nonnull align 8 dereferenceable(484) %0) #12
  store ptr getelementptr inbounds inrange(-16, 96) (i8, ptr @_ZTVN4llvm22AArch64MCAsmInfoDarwinE, i64 16), ptr %0, align 8
  %3 = load i32, ptr getelementptr inbounds (i8, ptr @_ZL16AsmWriterVariant, i64 128), align 8
  %4 = icmp eq i32 %3, -1
  %spec.select = select i1 %4, i32 1, i32 %3
  %5 = getelementptr inbounds nuw i8, ptr %0, i64 176
  store i32 %spec.select, ptr %5, align 8
  %6 = getelementptr inbounds nuw i8, ptr %0, i64 88
  store ptr @.str.6, ptr %6, align 8
  %.sroa.24.0..sroa_idx = getelementptr inbounds i8, ptr %0, i64 96
  store i64 1, ptr %.sroa.24.0..sroa_idx, align 8
  %7 = getelementptr inbounds nuw i8, ptr %0, i64 104
  store ptr @.str.6, ptr %7, align 8
  %.sroa.22.0..sroa_idx = getelementptr inbounds i8, ptr %0, i64 112
  store i64 1, ptr %.sroa.22.0..sroa_idx, align 8
  %8 = getelementptr inbounds nuw i8, ptr %0, i64 40
  store ptr @.str.7, ptr %8, align 8
  %9 = getelementptr inbounds nuw i8, ptr %0, i64 48
  store ptr @.str.8, ptr %9, align 8
  %.sroa.2.0..sroa_idx = getelementptr inbounds i8, ptr %0, i64 56
  store i64 1, ptr %.sroa.2.0..sroa_idx, align 8
  %10 = getelementptr inbounds nuw i8, ptr %0, i64 12
  store i32 8, ptr %10, align 4
  %11 = select i1 %1, i32 4, i32 8
  %12 = getelementptr inbounds nuw i8, ptr %0, i64 8
  store i32 %11, ptr %12, align 8
  %13 = getelementptr inbounds nuw i8, ptr %0, i64 339
  store i8 0, ptr %13, align 1
  %14 = getelementptr inbounds nuw i8, ptr %0, i64 337
  store i8 1, ptr %14, align 1
  %15 = getelementptr inbounds nuw i8, ptr %0, i64 408
  store i8 1, ptr %15, align 8
  %16 = getelementptr inbounds nuw i8, ptr %0, i64 186
  store i8 1, ptr %16, align 2
  %17 = getelementptr inbounds nuw i8, ptr %0, i64 412
  store i32 1, ptr %17, align 4
  ret void
}